; Function Attrs: mustprogress uwtable
define void @_ZN6icu_779SpoofImplC2Ev(ptr noundef nonnull align 8 dereferenceable(44) initializes((0, 44)) %0) unnamed_addr #1 align 2 personality ptr @__gxx_personality_v0 {
  %2 = alloca i32, align 4
  %3 = getelementptr inbounds nuw i8, ptr %0, i64 8
  store i32 944111087, ptr %3, align 8, !tbaa !3
  store ptr getelementptr inbounds nuw inrange(-16, 24) (i8, ptr @_ZTVN6icu_779SpoofImplE, i64 16), ptr %0, align 8, !tbaa !8
  call void @llvm.lifetime.start.p0(i64 4, ptr nonnull %2) #21
  store i32 0, ptr %2, align 4, !tbaa !19
  %4 = getelementptr inbounds nuw i8, ptr %0, i64 12
  store i32 65535, ptr %4, align 4, !tbaa !10
  %5 = getelementptr inbounds nuw i8, ptr %0, i64 16
  %6 = getelementptr inbounds nuw i8, ptr %0, i64 24
  %7 = getelementptr inbounds nuw i8, ptr %0, i64 32
  %8 = getelementptr inbounds nuw i8, ptr %0, i64 40
  tail call void @llvm.memset.p0.i64(ptr noundef nonnull align 8 dereferenceable(24) %5, i8 0, i64 24, i1 false)
  store i32 805306368, ptr %8, align 8, !tbaa !18
  %9 = tail call noundef ptr @_ZN6icu_777UMemorynwEm(i64 noundef 200) #21
  %10 = icmp eq ptr %9, null
  br i1 %10, label %12, label %11

11:                                               ; preds = %1
  invoke void @_ZN6icu_7710UnicodeSetC1Eii(ptr noundef nonnull align 8 dereferenceable(200) %9, i32 noundef 0, i32 noundef 1114111)
          to label %12 unwind label %18

12:                                               ; preds = %11, %1
  store ptr %9, ptr %6, align 8, !tbaa !21
  %13 = invoke ptr @uprv_strdup_77(ptr noundef nonnull @.str)
          to label %.noexc unwind label %24

.noexc:                                           ; preds = %12
  store ptr %13, ptr %7, align 8, !tbaa !22
  %14 = load ptr, ptr %6, align 8, !tbaa !21
  %15 = icmp eq ptr %14, null
  %16 = icmp eq ptr %13, null
  %or.cond.i = select i1 %15, i1 true, i1 %16
  br i1 %or.cond.i, label %17, label %20

17:                                               ; preds = %.noexc
  store i32 7, ptr %2, align 4, !tbaa !19
  br label %_ZN6icu_779SpoofImpl9constructER10UErrorCode.exit

18:                                               ; preds = %11
  %19 = landingpad { ptr, i32 }
          cleanup
  tail call void @_ZN6icu_777UMemorydlEPv(ptr noundef nonnull %9) #21
  br label %.body

20:                                               ; preds = %.noexc
  %21 = invoke noundef ptr @_ZN6icu_7710UnicodeSet6freezeEv(ptr noundef nonnull align 8 dereferenceable(200) %9)
          to label %_ZN6icu_779SpoofImpl9constructER10UErrorCode.exit unwind label %24

_ZN6icu_779SpoofImpl9constructER10UErrorCode.exit: ; preds = %17, %20
  %22 = invoke noundef ptr @_ZN6icu_779SpoofData10getDefaultER10UErrorCode(ptr noundef nonnull align 4 dereferenceable(4) %2)
          to label %23 unwind label %24

23:                                               ; preds = %_ZN6icu_779SpoofImpl9constructER10UErrorCode.exit
  store ptr %22, ptr %5, align 8, !tbaa !23
  call void @llvm.lifetime.end.p0(i64 4, ptr nonnull %2) #21
  ret void

24:                                               ; preds = %20, %12, %_ZN6icu_779SpoofImpl9constructER10UErrorCode.exit
  %25 = landingpad { ptr, i32 }
          cleanup
  br label %.body

.body:                                            ; preds = %18, %24
  %eh.lpad-body = phi { ptr, i32 } [ %25, %24 ], [ %19, %18 ]
  call void @llvm.lifetime.end.p0(i64 4, ptr nonnull %2) #21
  store i32 0, ptr %3, align 8, !tbaa !3
  call void @_ZN6icu_777UObjectD2Ev(ptr noundef nonnull align 8 dereferenceable(8) %0) #21
  resume { ptr, i32 } %eh.lpad-body
}